; Function Attrs: alwaysinline norecurse nounwind ssp uwtable
define internal void @"_ZN6open3d4core15ParallelForCPU_IZZZNS_1t8geometry6kernel10pointcloud25GetPointMaskWithinAABBCPUERKNS0_6TensorES8_S8_RS6_ENK3$_0clEvENKUlvE0_clEvEUllE_EEvRKNS0_6DeviceElRKT_.omp_outlined"(ptr noalias noundef readonly captures(none) %0, ptr noalias readnone captures(none) %1, ptr noundef nonnull readonly align 8 captures(none) dereferenceable(8) %2, ptr noundef nonnull readonly align 8 captures(none) dereferenceable(32) %3) #25 personality ptr @__gxx_personality_v0 {
  %5 = alloca i64, align 8
  %6 = alloca i64, align 8
  %7 = alloca i64, align 8
  %8 = alloca i32, align 4
  %9 = load i64, ptr %2, align 8, !tbaa !8
  %10 = icmp sgt i64 %9, 0
  br i1 %10, label %11, label %55

11:                                               ; preds = %4
  %12 = add nsw i64 %9, -1
  call void @llvm.lifetime.start.p0(i64 8, ptr nonnull %5) #26
  store i64 0, ptr %5, align 8, !tbaa !8
  call void @llvm.lifetime.start.p0(i64 8, ptr nonnull %6) #26
  store i64 %12, ptr %6, align 8, !tbaa !8
  call void @llvm.lifetime.start.p0(i64 8, ptr nonnull %7) #26
  store i64 1, ptr %7, align 8, !tbaa !8
  call void @llvm.lifetime.start.p0(i64 4, ptr nonnull %8) #26
  store i32 0, ptr %8, align 4, !tbaa !34
  %13 = load i32, ptr %0, align 4, !tbaa !34
  call void @__kmpc_for_static_init_8(ptr nonnull @1, i32 %13, i32 34, ptr nonnull %8, ptr nonnull %5, ptr nonnull %6, ptr nonnull %7, i64 1, i64 1)
  %14 = load i64, ptr %6, align 8, !tbaa !8
  %15 = call i64 @llvm.smin.i64(i64 %14, i64 %12)
  store i64 %15, ptr %6, align 8, !tbaa !8
  %16 = load i64, ptr %5, align 8, !tbaa !8
  %.not13 = icmp sgt i64 %16, %15
  br i1 %.not13, label %._crit_edge, label %.lr.ph

.lr.ph:                                           ; preds = %11
  %17 = load ptr, ptr %3, align 8, !tbaa !852
  %18 = getelementptr inbounds nuw i8, ptr %3, i64 8
  %19 = load ptr, ptr %18, align 8, !tbaa !855
  %20 = load double, ptr %19, align 8, !tbaa !132
  %21 = getelementptr inbounds nuw i8, ptr %3, i64 16
  %22 = load ptr, ptr %21, align 8
  %23 = getelementptr inbounds nuw i8, ptr %19, i64 8
  %24 = getelementptr inbounds nuw i8, ptr %22, i64 8
  %25 = getelementptr inbounds nuw i8, ptr %19, i64 16
  %26 = getelementptr inbounds nuw i8, ptr %22, i64 16
  %27 = getelementptr inbounds nuw i8, ptr %3, i64 24
  %28 = load ptr, ptr %27, align 8, !tbaa !857
  br label %29

29:                                               ; preds = %.lr.ph, %"_ZZZZN6open3d1t8geometry6kernel10pointcloud25GetPointMaskWithinAABBCPUERKNS_4core6TensorES7_S7_RS5_ENK3$_0clEvENKUlvE0_clEvENKUllE_clEl.exit"
  %.014 = phi i64 [ %16, %.lr.ph ], [ %54, %"_ZZZZN6open3d1t8geometry6kernel10pointcloud25GetPointMaskWithinAABBCPUERKNS_4core6TensorES7_S7_RS5_ENK3$_0clEvENKUlvE0_clEvENKUllE_clEl.exit" ]
  %.idx.i = mul nsw i64 %.014, 24
  %30 = getelementptr inbounds i8, ptr %17, i64 %.idx.i
  %31 = load double, ptr %30, align 8, !tbaa !132
  %32 = getelementptr i8, ptr %30, i64 8
  %33 = load double, ptr %32, align 8, !tbaa !132
  %34 = getelementptr i8, ptr %30, i64 16
  %35 = load double, ptr %34, align 8, !tbaa !132
  %36 = fcmp ult double %31, %20
  br i1 %36, label %52, label %37

37:                                               ; preds = %29
  %38 = load double, ptr %22, align 8, !tbaa !132
  %39 = fcmp ugt double %31, %38
  br i1 %39, label %52, label %40

40:                                               ; preds = %37
  %41 = load double, ptr %23, align 8, !tbaa !132
  %42 = fcmp ult double %33, %41
  br i1 %42, label %52, label %43

43:                                               ; preds = %40
  %44 = load double, ptr %24, align 8, !tbaa !132
  %45 = fcmp ugt double %33, %44
  br i1 %45, label %52, label %46

46:                                               ; preds = %43
  %47 = load double, ptr %25, align 8, !tbaa !132
  %48 = fcmp ult double %35, %47
  br i1 %48, label %52, label %49

49:                                               ; preds = %46
  %50 = load double, ptr %26, align 8, !tbaa !132
  %51 = fcmp ugt double %35, %50
  br i1 %51, label %52, label %"_ZZZZN6open3d1t8geometry6kernel10pointcloud25GetPointMaskWithinAABBCPUERKNS_4core6TensorES7_S7_RS5_ENK3$_0clEvENKUlvE0_clEvENKUllE_clEl.exit"

52:                                               ; preds = %49, %46, %43, %40, %37, %29
  br label %"_ZZZZN6open3d1t8geometry6kernel10pointcloud25GetPointMaskWithinAABBCPUERKNS_4core6TensorES7_S7_RS5_ENK3$_0clEvENKUlvE0_clEvENKUllE_clEl.exit"

"_ZZZZN6open3d1t8geometry6kernel10pointcloud25GetPointMaskWithinAABBCPUERKNS_4core6TensorES7_S7_RS5_ENK3$_0clEvENKUlvE0_clEvENKUllE_clEl.exit": ; preds = %49, %52
  %.sink.i = phi i8 [ 0, %52 ], [ 1, %49 ]
  %53 = getelementptr inbounds i8, ptr %28, i64 %.014
  store i8 %.sink.i, ptr %53, align 1, !tbaa !15
  %54 = add i64 %.014, 1
  %exitcond.not = icmp eq i64 %.014, %15
  br i1 %exitcond.not, label %._crit_edge, label %29

._crit_edge:                                      ; preds = %"_ZZZZN6open3d1t8geometry6kernel10pointcloud25GetPointMaskWithinAABBCPUERKNS_4core6TensorES7_S7_RS5_ENK3$_0clEvENKUlvE0_clEvENKUllE_clEl.exit", %11
  call void @__kmpc_for_static_fini(ptr nonnull @1, i32 %13)
  call void @llvm.lifetime.end.p0(i64 4, ptr nonnull %8) #26
  call void @llvm.lifetime.end.p0(i64 8, ptr nonnull %7) #26
  call void @llvm.lifetime.end.p0(i64 8, ptr nonnull %6) #26
  call void @llvm.lifetime.end.p0(i64 8, ptr nonnull %5) #26
  br label %55

55:                                               ; preds = %._crit_edge, %4
  ret void
}